; Function Attrs: nounwind uwtable
define ptr @l_UInt32_reduceBNe____x40_Lean_Meta_Tactic_Simp_BuiltinSimprocs_UInt___hyg_10599____lambda__1___boxed(ptr noundef %0, ptr noundef %1, ptr noundef %2, ptr noundef %3, ptr noundef %4, ptr noundef %5, ptr noundef %6, ptr noundef %7, ptr noundef %8, ptr noundef %9) local_unnamed_addr #0 {
  %11 = tail call ptr @l_UInt32_reduceBNe____x40_Lean_Meta_Tactic_Simp_BuiltinSimprocs_UInt___hyg_10599____lambda__1(ptr noundef %0, ptr poison, ptr poison, ptr poison, ptr poison, ptr noundef %5, ptr noundef %6, ptr noundef %7, ptr noundef %8, ptr noundef %9)
  %12 = ptrtoint ptr %4 to i64
  %13 = and i64 %12, 1
  %.not = icmp eq i64 %13, 0
  br i1 %.not, label %14, label %lean_dec.exit19

14:                                               ; preds = %10
  %15 = load i32, ptr %4, align 4, !tbaa !8
  %16 = icmp sgt i32 %15, 1
  br i1 %16, label %17, label %19, !prof !11

17:                                               ; preds = %14
  %18 = add nsw i32 %15, -1
  store i32 %18, ptr %4, align 4, !tbaa !8
  br label %lean_dec.exit19

19:                                               ; preds = %14
  %.not.i = icmp eq i32 %15, 0
  br i1 %.not.i, label %lean_dec.exit19, label %20

20:                                               ; preds = %19
  tail call void @lean_dec_ref_cold(ptr noundef nonnull %4) #5
  br label %lean_dec.exit19

lean_dec.exit19:                                  ; preds = %20, %19, %17, %10
  %21 = ptrtoint ptr %3 to i64
  %22 = and i64 %21, 1
  %.not28 = icmp eq i64 %22, 0
  br i1 %.not28, label %23, label %lean_dec.exit18

23:                                               ; preds = %lean_dec.exit19
  %24 = load i32, ptr %3, align 4, !tbaa !8
  %25 = icmp sgt i32 %24, 1
  br i1 %25, label %26, label %28, !prof !11

26:                                               ; preds = %23
  %27 = add nsw i32 %24, -1
  store i32 %27, ptr %3, align 4, !tbaa !8
  br label %lean_dec.exit18

28:                                               ; preds = %23
  %.not.i20 = icmp eq i32 %24, 0
  br i1 %.not.i20, label %lean_dec.exit18, label %29

29:                                               ; preds = %28
  tail call void @lean_dec_ref_cold(ptr noundef nonnull %3) #5
  br label %lean_dec.exit18

lean_dec.exit18:                                  ; preds = %29, %28, %26, %lean_dec.exit19
  %30 = ptrtoint ptr %2 to i64
  %31 = and i64 %30, 1
  %.not29 = icmp eq i64 %31, 0
  br i1 %.not29, label %32, label %lean_dec.exit17

32:                                               ; preds = %lean_dec.exit18
  %33 = load i32, ptr %2, align 4, !tbaa !8
  %34 = icmp sgt i32 %33, 1
  br i1 %34, label %35, label %37, !prof !11

35:                                               ; preds = %32
  %36 = add nsw i32 %33, -1
  store i32 %36, ptr %2, align 4, !tbaa !8
  br label %lean_dec.exit17

37:                                               ; preds = %32
  %.not.i22 = icmp eq i32 %33, 0
  br i1 %.not.i22, label %lean_dec.exit17, label %38

38:                                               ; preds = %37
  tail call void @lean_dec_ref_cold(ptr noundef nonnull %2) #5
  br label %lean_dec.exit17

lean_dec.exit17:                                  ; preds = %38, %37, %35, %lean_dec.exit18
  %39 = ptrtoint ptr %1 to i64
  %40 = and i64 %39, 1
  %.not30 = icmp eq i64 %40, 0
  br i1 %.not30, label %41, label %lean_dec.exit16

41:                                               ; preds = %lean_dec.exit17
  %42 = load i32, ptr %1, align 4, !tbaa !8
  %43 = icmp sgt i32 %42, 1
  br i1 %43, label %44, label %46, !prof !11

44:                                               ; preds = %41
  %45 = add nsw i32 %42, -1
  store i32 %45, ptr %1, align 4, !tbaa !8
  br label %lean_dec.exit16

46:                                               ; preds = %41
  %.not.i24 = icmp eq i32 %42, 0
  br i1 %.not.i24, label %lean_dec.exit16, label %47

47:                                               ; preds = %46
  tail call void @lean_dec_ref_cold(ptr noundef nonnull %1) #5
  br label %lean_dec.exit16

lean_dec.exit16:                                  ; preds = %47, %46, %44, %lean_dec.exit17
  %48 = ptrtoint ptr %0 to i64
  %49 = and i64 %48, 1
  %.not31 = icmp eq i64 %49, 0
  br i1 %.not31, label %50, label %lean_dec.exit

50:                                               ; preds = %lean_dec.exit16
  %51 = load i32, ptr %0, align 4, !tbaa !8
  %52 = icmp sgt i32 %51, 1
  br i1 %52, label %53, label %55, !prof !11

53:                                               ; preds = %50
  %54 = add nsw i32 %51, -1
  store i32 %54, ptr %0, align 4, !tbaa !8
  br label %lean_dec.exit

55:                                               ; preds = %50
  %.not.i26 = icmp eq i32 %51, 0
  br i1 %.not.i26, label %lean_dec.exit, label %56

56:                                               ; preds = %55
  tail call void @lean_dec_ref_cold(ptr noundef nonnull %0) #5
  br label %lean_dec.exit

lean_dec.exit:                                    ; preds = %56, %55, %53, %lean_dec.exit16
  ret ptr %11
}